; Function Attrs: null_pointer_is_valid sspstrong uwtable
define internal noundef i32 @semcheck_is_ipv4_field(ptr noundef %0, ptr noundef %1, i32 %2, ptr noundef readonly captures(none) %3, i64 %4, i64 %5) #0 {
  %7 = alloca i32, align 4
  %8 = alloca i8, align 1
  %9 = load ptr, ptr %3, align 8
  call void @llvm.lifetime.start.p0(i64 4, ptr nonnull %7)
  call void @llvm.lifetime.start.p0(i64 1, ptr nonnull %8)
  store volatile i8 0, ptr %8, align 1
  %10 = tail call i32 @df_semcheck_param(ptr noundef %0, ptr noundef %1, i32 noundef 32, ptr noundef %9, i64 %4, i64 %5)
  store volatile i32 %10, ptr %7, align 4
  %.0..0..0..0..0..0.2772.i = load volatile i32, ptr %7, align 4
  %11 = icmp eq i32 %.0..0..0..0..0..0.2772.i, 32
  br i1 %11, label %check_ip_field.exit, label %print_which.exit.i

print_which.exit.i:                               ; preds = %6
  %12 = tail call { i64, i64 } @stnode_location(ptr noundef %9)
  %13 = extractvalue { i64, i64 } %12, 0
  %14 = extractvalue { i64, i64 } %12, 1
  tail call void (ptr, i32, i64, i64, ptr, ...) @dfilter_fail_throw(ptr noundef %0, i32 noundef -1, i64 %13, i64 %14, ptr noundef nonnull @.str.7, ptr noundef nonnull @.str.8, ptr noundef %1) #7
  unreachable

check_ip_field.exit:                              ; preds = %6
  call void @llvm.lifetime.end.p0(i64 1, ptr nonnull %8)
  call void @llvm.lifetime.end.p0(i64 4, ptr nonnull %7)
  ret i32 2
}